target datalayout = "e-m:e-p270:32:32-p271:32:32-p272:64:64-i64:64-i128:128-f80:128-n8:16:32:64-S128"
target triple = "x86_64-pc-linux-gnu"

%struct.PROV_XORSIG_CTX = type { ptr, ptr, ptr, i8, [50 x i8], ptr, i64, ptr, ptr, i32 }

; Function Attrs: nounwind uwtable
define internal i32 @xor_sig_digest_sign_final(ptr noundef %0, ptr noundef %1, ptr noundef %2, i64 noundef %3) #0 {
  %5 = alloca i32, align 4
  %6 = alloca ptr, align 8
  %7 = alloca ptr, align 8
  %8 = alloca ptr, align 8
  %9 = alloca i64, align 8
  %10 = alloca ptr, align 8
  %11 = alloca [64 x i8], align 16
  %12 = alloca i32, align 4
  %13 = alloca i32, align 4
  store ptr %0, ptr %6, align 8, !tbaa !13
  store ptr %1, ptr %7, align 8, !tbaa !30
  store ptr %2, ptr %8, align 8, !tbaa !66
  store i64 %3, ptr %9, align 8, !tbaa !35
  call void @llvm.lifetime.start.p0(i64 8, ptr %10) #8
  %14 = load ptr, ptr %6, align 8, !tbaa !13
  store ptr %14, ptr %10, align 8, !tbaa !13
  call void @llvm.lifetime.start.p0(i64 64, ptr %11) #8
  call void @llvm.lifetime.start.p0(i64 4, ptr %12) #8
  store i32 0, ptr %12, align 4, !tbaa !27
  %15 = load ptr, ptr %7, align 8, !tbaa !30
  %16 = icmp ne ptr %15, null
  br i1 %16, label %17, label %40

17:                                               ; preds = %4
  %18 = load ptr, ptr %10, align 8, !tbaa !13
  %19 = icmp eq ptr %18, null
  br i1 %19, label %25, label %20

20:                                               ; preds = %17
  %21 = load ptr, ptr %10, align 8, !tbaa !13
  %22 = getelementptr inbounds nuw %struct.PROV_XORSIG_CTX, ptr %21, i32 0, i32 8
  %23 = load ptr, ptr %22, align 8, !tbaa !147
  %24 = icmp eq ptr %23, null
  br i1 %24, label %25, label %26

25:                                               ; preds = %20, %17
  store i32 0, ptr %5, align 4
  store i32 1, ptr %13, align 4
  br label %49

26:                                               ; preds = %20
  %27 = load ptr, ptr %10, align 8, !tbaa !13
  %28 = getelementptr inbounds nuw %struct.PROV_XORSIG_CTX, ptr %27, i32 0, i32 8
  %29 = load ptr, ptr %28, align 8, !tbaa !147
  %30 = getelementptr inbounds [64 x i8], ptr %11, i64 0, i64 0
  %31 = call i32 @EVP_DigestFinal_ex(ptr noundef %29, ptr noundef %30, ptr noundef %12)
  %32 = icmp ne i32 %31, 0
  br i1 %32, label %34, label %33

33:                                               ; preds = %26
  store i32 0, ptr %5, align 4
  store i32 1, ptr %13, align 4
  br label %49

34:                                               ; preds = %26
  %35 = load ptr, ptr %10, align 8, !tbaa !13
  %36 = getelementptr inbounds nuw %struct.PROV_XORSIG_CTX, ptr %35, i32 0, i32 3
  %37 = load i8, ptr %36, align 8
  %38 = and i8 %37, -2
  %39 = or i8 %38, 1
  store i8 %39, ptr %36, align 8
  br label %40

40:                                               ; preds = %34, %4
  %41 = load ptr, ptr %6, align 8, !tbaa !13
  %42 = load ptr, ptr %7, align 8, !tbaa !30
  %43 = load ptr, ptr %8, align 8, !tbaa !66
  %44 = load i64, ptr %9, align 8, !tbaa !35
  %45 = getelementptr inbounds [64 x i8], ptr %11, i64 0, i64 0
  %46 = load i32, ptr %12, align 4, !tbaa !27
  %47 = zext i32 %46 to i64
  %48 = call i32 @xor_sig_sign(ptr noundef %41, ptr noundef %42, ptr noundef %43, i64 noundef %44, ptr noundef %45, i64 noundef %47)
  store i32 %48, ptr %5, align 4
  store i32 1, ptr %13, align 4
  br label %49

49:                                               ; preds = %40, %33, %25
  call void @llvm.lifetime.end.p0(i64 4, ptr %12) #8
  call void @llvm.lifetime.end.p0(i64 64, ptr %11) #8
  call void @llvm.lifetime.end.p0(i64 8, ptr %10) #8
  %50 = load i32, ptr %5, align 4
  ret i32 %50
}