; Function Attrs: nounwind uwtable
define internal range(i32 0, 2) i32 @xor_sig_digest_sign_final(ptr noundef captures(address_is_null) %0, ptr noundef %1, ptr noundef captures(none) %2, i64 %3) #0 {
  %5 = alloca [64 x i8], align 16
  %6 = alloca i32, align 4
  call void @llvm.lifetime.start.p0(i64 64, ptr nonnull %5) #16
  call void @llvm.lifetime.start.p0(i64 4, ptr nonnull %6) #16
  store i32 0, ptr %6, align 4, !tbaa !11
  %.not = icmp eq ptr %1, null
  br i1 %.not, label %.split, label %15

.split:                                           ; preds = %4
  %7 = getelementptr inbounds nuw i8, ptr %0, i64 16
  %8 = load ptr, ptr %7, align 8, !tbaa !111
  %9 = icmp eq ptr %8, null
  br i1 %9, label %13, label %10

10:                                               ; preds = %.split
  %11 = getelementptr inbounds nuw i8, ptr %8, i64 64
  %12 = load i32, ptr %11, align 8, !tbaa !41
  %.not.i = icmp eq i32 %12, 0
  br i1 %.not.i, label %13, label %14

13:                                               ; preds = %10, %.split
  tail call void @ERR_new() #16
  tail call void @ERR_set_debug(ptr noundef nonnull @.str.2, i32 noundef 2748, ptr noundef nonnull @__func__.xor_sig_sign) #16
  tail call void (i32, i32, ptr, ...) @ERR_set_error(i32 noundef 128, i32 noundef 10, ptr noundef null) #16
  br label %xor_sig_sign.exit

14:                                               ; preds = %10
  store i64 64, ptr %2, align 8, !tbaa !47
  br label %xor_sig_sign.exit

15:                                               ; preds = %4
  %16 = icmp eq ptr %0, null
  br i1 %16, label %xor_sig_sign.exit, label %17

17:                                               ; preds = %15
  %18 = getelementptr inbounds nuw i8, ptr %0, i64 104
  %19 = load ptr, ptr %18, align 8, !tbaa !114
  %20 = icmp eq ptr %19, null
  br i1 %20, label %xor_sig_sign.exit, label %21

21:                                               ; preds = %17
  %22 = call i32 @EVP_DigestFinal_ex(ptr noundef nonnull %19, ptr noundef nonnull %5, ptr noundef nonnull %6) #16
  %.not15 = icmp eq i32 %22, 0
  br i1 %.not15, label %xor_sig_sign.exit, label %.split11

.split11:                                         ; preds = %21
  %23 = getelementptr inbounds nuw i8, ptr %0, i64 24
  %24 = load i8, ptr %23, align 8
  %25 = or i8 %24, 1
  store i8 %25, ptr %23, align 8
  %26 = load i32, ptr %6, align 4, !tbaa !11
  %27 = zext i32 %26 to i64
  %28 = call i32 @xor_sig_sign(ptr noundef nonnull %0, ptr noundef nonnull %1, ptr noundef %2, i64 poison, ptr noundef nonnull %5, i64 noundef %27)
  br label %xor_sig_sign.exit

xor_sig_sign.exit:                                ; preds = %14, %13, %.split11, %21, %15, %17
  %.0 = phi i32 [ 0, %17 ], [ 0, %15 ], [ 0, %21 ], [ %28, %.split11 ], [ 0, %13 ], [ 1, %14 ]
  call void @llvm.lifetime.end.p0(i64 4, ptr nonnull %6) #16
  call void @llvm.lifetime.end.p0(i64 64, ptr nonnull %5) #16
  ret i32 %.0
}